target datalayout = "e-m:e-p270:32:32-p271:32:32-p272:64:64-i64:64-i128:128-f80:128-n8:16:32:64-S128"
target triple = "x86_64-pc-linux-gnu"

%struct.timespec = type { i64, i64 }

@.str.7 = private unnamed_addr constant [5 x i8] c"Time\00", align 1
@.str.8 = private unnamed_addr constant [51 x i8] c"Counter-example care-set verification has failed.\0A\00", align 1
@.str.11 = private unnamed_addr constant [5 x i8] c"%s =\00", align 1
@.str.12 = private unnamed_addr constant [11 x i8] c"%9.2f sec\0A\00", align 1

; Function Attrs: inlinehint nounwind uwtable
define internal void @Abc_PrintTime(i32 noundef %0, ptr noundef %1, i64 noundef %2) #3 {
  %4 = alloca i32, align 4
  %5 = alloca ptr, align 8
  %6 = alloca i64, align 8
  store i32 %0, ptr %4, align 4, !tbaa !8
  store ptr %1, ptr %5, align 8, !tbaa !44
  store i64 %2, ptr %6, align 8, !tbaa !71
  %7 = load ptr, ptr %5, align 8, !tbaa !44
  call void (i32, ptr, ...) @Abc_Print(i32 noundef 1, ptr noundef @.str.11, ptr noundef %7)
  %8 = load i64, ptr %6, align 8, !tbaa !71
  %9 = sitofp i64 %8 to double
  %10 = fmul double 1.000000e+00, %9
  %11 = fdiv double %10, 1.000000e+06
  call void (i32, ptr, ...) @Abc_Print(i32 noundef 1, ptr noundef @.str.12, double noundef %11)
  ret void
}

; Function Attrs: inlinehint nounwind uwtable
define internal i64 @Abc_Clock() #3 {
  %1 = alloca i64, align 8
  %2 = alloca %struct.timespec, align 8
  %3 = alloca i32, align 4
  %4 = alloca i64, align 8
  call void @llvm.lifetime.start.p0(i64 16, ptr %2) #11
  %5 = call i32 @clock_gettime(i32 noundef 1, ptr noundef %2) #11
  %6 = icmp slt i32 %5, 0
  br i1 %6, label %7, label %8

7:                                                ; preds = %0
  store i64 -1, ptr %1, align 8
  store i32 1, ptr %3, align 4
  br label %19

8:                                                ; preds = %0
  call void @llvm.lifetime.start.p0(i64 8, ptr %4) #11
  %9 = getelementptr inbounds nuw %struct.timespec, ptr %2, i32 0, i32 0
  %10 = load i64, ptr %9, align 8, !tbaa !85
  %11 = mul nsw i64 %10, 1000000
  store i64 %11, ptr %4, align 8, !tbaa !71
  %12 = getelementptr inbounds nuw %struct.timespec, ptr %2, i32 0, i32 1
  %13 = load i64, ptr %12, align 8, !tbaa !87
  %14 = mul nsw i64 %13, 1000000
  %15 = sdiv i64 %14, 1000000000
  %16 = load i64, ptr %4, align 8, !tbaa !71
  %17 = add nsw i64 %16, %15
  store i64 %17, ptr %4, align 8, !tbaa !71
  %18 = load i64, ptr %4, align 8, !tbaa !71
  store i64 %18, ptr %1, align 8
  store i32 1, ptr %3, align 4
  call void @llvm.lifetime.end.p0(i64 8, ptr %4) #11
  br label %19

19:                                               ; preds = %8, %7
  call void @llvm.lifetime.end.p0(i64 16, ptr %2) #11
  %20 = load i64, ptr %1, align 8
  ret i64 %20
}

; Function Attrs: nounwind uwtable
define ptr @Bmc_CexDepthTest(ptr noundef %0, ptr noundef %1, i32 noundef %2, i32 noundef %3) #0 {
  %5 = alloca ptr, align 8
  %6 = alloca ptr, align 8
  %7 = alloca i32, align 4
  %8 = alloca i32, align 4
  %9 = alloca ptr, align 8
  %10 = alloca i64, align 8
  %11 = alloca ptr, align 8
  %12 = alloca ptr, align 8
  %13 = alloca ptr, align 8
  store ptr %0, ptr %5, align 8, !tbaa !3
  store ptr %1, ptr %6, align 8, !tbaa !51
  store i32 %2, ptr %7, align 4, !tbaa !8
  store i32 %3, ptr %8, align 4, !tbaa !8
  call void @llvm.lifetime.start.p0(i64 8, ptr %9) #11
  call void @llvm.lifetime.start.p0(i64 8, ptr %10) #11
  %14 = call i64 @Abc_Clock()
  store i64 %14, ptr %10, align 8, !tbaa !71
  call void @llvm.lifetime.start.p0(i64 8, ptr %11) #11
  store ptr null, ptr %11, align 8, !tbaa !51
  call void @llvm.lifetime.start.p0(i64 8, ptr %12) #11
  %15 = load ptr, ptr %5, align 8, !tbaa !3
  %16 = load ptr, ptr %6, align 8, !tbaa !51
  %17 = load i32, ptr %8, align 4, !tbaa !8
  %18 = call ptr @Bmc_CexInnerStates(ptr noundef %15, ptr noundef %16, ptr noundef %11, i32 noundef %17)
  store ptr %18, ptr %12, align 8, !tbaa !51
  call void @llvm.lifetime.start.p0(i64 8, ptr %13) #11
  %19 = load ptr, ptr %5, align 8, !tbaa !3
  %20 = load ptr, ptr %12, align 8, !tbaa !51
  %21 = load ptr, ptr %11, align 8, !tbaa !51
  %22 = load i32, ptr %8, align 4, !tbaa !8
  %23 = call ptr @Bmc_CexCareBits(ptr noundef %19, ptr noundef %20, ptr noundef %21, ptr noundef null, i32 noundef 1, i32 noundef %22)
  store ptr %23, ptr %13, align 8, !tbaa !51
  %24 = load ptr, ptr %5, align 8, !tbaa !3
  %25 = load ptr, ptr %6, align 8, !tbaa !51
  %26 = load ptr, ptr %13, align 8, !tbaa !51
  %27 = call i32 @Bmc_CexVerify(ptr noundef %24, ptr noundef %25, ptr noundef %26)
  %28 = icmp ne i32 %27, 0
  br i1 %28, label %31, label %29

29:                                               ; preds = %4
  %30 = call i32 (ptr, ...) @printf(ptr noundef @.str.8)
  br label %31

31:                                               ; preds = %29, %4
  %32 = call i64 @Abc_Clock()
  %33 = load i64, ptr %10, align 8, !tbaa !71
  %34 = sub nsw i64 %32, %33
  call void @Abc_PrintTime(i32 noundef 1, ptr noundef @.str.7, i64 noundef %34)
  %35 = load ptr, ptr %5, align 8, !tbaa !3
  %36 = load ptr, ptr %12, align 8, !tbaa !51
  %37 = load i32, ptr %7, align 4, !tbaa !8
  %38 = call ptr @Bmc_CexBuildNetwork2Test(ptr noundef %35, ptr noundef %36, i32 noundef %37)
  store ptr %38, ptr %9, align 8, !tbaa !3
  call void @Abc_CexFreeP(ptr noundef %12)
  call void @Abc_CexFreeP(ptr noundef %11)
  call void @Abc_CexFreeP(ptr noundef %13)
  %39 = load ptr, ptr %9, align 8, !tbaa !3
  call void @llvm.lifetime.end.p0(i64 8, ptr %13) #11
  call void @llvm.lifetime.end.p0(i64 8, ptr %12) #11
  call void @llvm.lifetime.end.p0(i64 8, ptr %11) #11
  call void @llvm.lifetime.end.p0(i64 8, ptr %10) #11
  call void @llvm.lifetime.end.p0(i64 8, ptr %9) #11
  ret ptr %39
}