; Function Attrs: nounwind uwtable
define noundef ptr @Bmc_CexDepthTest(ptr noundef %0, ptr noundef %1, i32 noundef %2, i32 noundef %3) local_unnamed_addr #0 {
  %5 = alloca %struct.timespec, align 8
  %6 = alloca %struct.timespec, align 8
  %7 = alloca ptr, align 8
  %8 = alloca ptr, align 8
  %9 = alloca ptr, align 8
  call void @llvm.lifetime.start.p0(i64 16, ptr nonnull %6) #17
  %10 = call i32 @clock_gettime(i32 noundef 1, ptr noundef nonnull %6) #17
  %11 = icmp slt i32 %10, 0
  br i1 %11, label %Abc_Clock.exit, label %12

12:                                               ; preds = %4
  %13 = load i64, ptr %6, align 8, !tbaa !68
  %.neg12 = mul i64 %13, -1000000
  %14 = getelementptr inbounds nuw i8, ptr %6, i64 8
  %15 = load i64, ptr %14, align 8, !tbaa !70
  %.neg = sdiv i64 %15, -1000
  %.neg13 = add i64 %.neg, %.neg12
  br label %Abc_Clock.exit

Abc_Clock.exit:                                   ; preds = %4, %12
  %.0.i.neg = phi i64 [ %.neg13, %12 ], [ 1, %4 ]
  call void @llvm.lifetime.end.p0(i64 16, ptr nonnull %6) #17
  call void @llvm.lifetime.start.p0(i64 8, ptr nonnull %7) #17
  store ptr null, ptr %7, align 8, !tbaa !78
  call void @llvm.lifetime.start.p0(i64 8, ptr nonnull %8) #17
  %16 = call ptr @Bmc_CexInnerStates(ptr noundef %0, ptr noundef %1, ptr noundef nonnull %7, i32 noundef %3) #17
  store ptr %16, ptr %8, align 8, !tbaa !78
  call void @llvm.lifetime.start.p0(i64 8, ptr nonnull %9) #17
  %17 = load ptr, ptr %7, align 8, !tbaa !78
  %18 = call ptr @Bmc_CexCareBits(ptr noundef %0, ptr noundef %16, ptr noundef %17, ptr noundef null, i32 noundef 1, i32 noundef %3) #17
  store ptr %18, ptr %9, align 8, !tbaa !78
  %19 = call i32 @Bmc_CexVerify(ptr noundef %0, ptr noundef %1, ptr noundef %18) #17
  %.not = icmp eq i32 %19, 0
  br i1 %.not, label %20, label %21

20:                                               ; preds = %Abc_Clock.exit
  %puts = call i32 @puts(ptr nonnull dereferenceable(1) @str.1)
  br label %21

21:                                               ; preds = %20, %Abc_Clock.exit
  call void @llvm.lifetime.start.p0(i64 16, ptr nonnull %5) #17
  %22 = call i32 @clock_gettime(i32 noundef 1, ptr noundef nonnull %5) #17
  %23 = icmp slt i32 %22, 0
  br i1 %23, label %Abc_Clock.exit11, label %24

24:                                               ; preds = %21
  %25 = load i64, ptr %5, align 8, !tbaa !68
  %26 = mul nsw i64 %25, 1000000
  %27 = getelementptr inbounds nuw i8, ptr %5, i64 8
  %28 = load i64, ptr %27, align 8, !tbaa !70
  %29 = sdiv i64 %28, 1000
  %30 = add nsw i64 %29, %26
  br label %Abc_Clock.exit11

Abc_Clock.exit11:                                 ; preds = %21, %24
  %.0.i10 = phi i64 [ %30, %24 ], [ -1, %21 ]
  call void @llvm.lifetime.end.p0(i64 16, ptr nonnull %5) #17
  %31 = add i64 %.0.i10, %.0.i.neg
  call void (i32, ptr, ...) @Abc_Print(i32 poison, ptr noundef nonnull @.str.11, ptr noundef nonnull @.str.7)
  %32 = sitofp i64 %31 to double
  %33 = fdiv double %32, 1.000000e+06
  call void (i32, ptr, ...) @Abc_Print(i32 poison, ptr noundef nonnull @.str.12, double noundef %33)
  %34 = call ptr @Bmc_CexBuildNetwork2Test(ptr noundef %0, ptr noundef %16, i32 noundef %2)
  call void @Abc_CexFreeP(ptr noundef nonnull %8) #17
  call void @Abc_CexFreeP(ptr noundef nonnull %7) #17
  call void @Abc_CexFreeP(ptr noundef nonnull %9) #17
  call void @llvm.lifetime.end.p0(i64 8, ptr nonnull %9) #17
  call void @llvm.lifetime.end.p0(i64 8, ptr nonnull %8) #17
  call void @llvm.lifetime.end.p0(i64 8, ptr nonnull %7) #17
  ret ptr %34
}